; Function Attrs: mustprogress uwtable
define void @_ZN7rocksdb23EncryptedSequentialFile4SkipEm(ptr dead_on_unwind noalias writable sret(%"class.rocksdb::IOStatus") align 8 %0, ptr noundef nonnull align 8 captures(none) dereferenceable(40) %1, i64 noundef %2) unnamed_addr #3 align 2 personality ptr @__gxx_personality_v0 {
  %4 = getelementptr inbounds nuw i8, ptr %1, i64 8
  %5 = load ptr, ptr %4, align 8, !tbaa !22
  %6 = load ptr, ptr %5, align 8, !tbaa !13
  %7 = getelementptr inbounds nuw i8, ptr %6, i64 24
  %8 = load ptr, ptr %7, align 8
  tail call void %8(ptr dead_on_unwind writable sret(%"class.rocksdb::IOStatus") align 8 %0, ptr noundef nonnull align 8 dereferenceable(8) %5, i64 noundef %2)
  %9 = load i8, ptr %0, align 8, !tbaa !24
  %10 = icmp eq i8 %9, 0
  br i1 %10, label %11, label %15

11:                                               ; preds = %3
  %12 = getelementptr inbounds nuw i8, ptr %1, i64 24
  %13 = load i64, ptr %12, align 8, !tbaa !55
  %14 = add i64 %13, %2
  store i64 %14, ptr %12, align 8, !tbaa !55
  br label %15

15:                                               ; preds = %11, %3
  ret void
}